target datalayout = "e-m:e-p270:32:32-p271:32:32-p272:64:64-i64:64-i128:128-f80:128-n8:16:32:64-S128"
target triple = "x86_64-pc-linux-gnu"

; Function Attrs: nounwind uwtable
define internal void @spatial_compensation_6(ptr noalias noundef %0, ptr noalias noundef %1, i64 noundef %2) #1 {
  %4 = alloca ptr, align 8
  %5 = alloca ptr, align 8
  %6 = alloca i64, align 8
  %7 = alloca i32, align 4
  store ptr %0, ptr %4, align 8, !tbaa !14
  store ptr %1, ptr %5, align 8, !tbaa !14
  store i64 %2, ptr %6, align 8, !tbaa !16
  call void @llvm.lifetime.start.p0(i64 4, ptr %7) #6
  store i32 0, ptr %7, align 4, !tbaa !18
  br label %8

8:                                                ; preds = %24, %3
  %9 = load i32, ptr %7, align 4, !tbaa !18
  %10 = icmp slt i32 %9, 8
  br i1 %10, label %12, label %11

11:                                               ; preds = %8
  call void @llvm.lifetime.end.p0(i64 4, ptr %7) #6
  br label %27

12:                                               ; preds = %8
  %13 = load ptr, ptr %4, align 8, !tbaa !14
  %14 = getelementptr inbounds i8, ptr %13, i64 16
  %15 = load i32, ptr %7, align 4, !tbaa !18
  %16 = sext i32 %15 to i64
  %17 = sub i64 0, %16
  %18 = getelementptr inbounds i8, ptr %14, i64 %17
  %19 = load i64, ptr %18, align 1, !tbaa !22
  %20 = load ptr, ptr %5, align 8, !tbaa !14
  store i64 %19, ptr %20, align 1, !tbaa !22
  %21 = load i64, ptr %6, align 8, !tbaa !16
  %22 = load ptr, ptr %5, align 8, !tbaa !14
  %23 = getelementptr inbounds i8, ptr %22, i64 %21
  store ptr %23, ptr %5, align 8, !tbaa !14
  br label %24

24:                                               ; preds = %12
  %25 = load i32, ptr %7, align 4, !tbaa !18
  %26 = add nsw i32 %25, 1
  store i32 %26, ptr %7, align 4, !tbaa !18
  br label %8, !llvm.loop !47

27:                                               ; preds = %11
  ret void
}