; Function Attrs: nofree norecurse nosync nounwind memory(argmem: readwrite) uwtable
define internal void @spatial_compensation_6(ptr noalias noundef readonly captures(none) %0, ptr noalias noundef writeonly captures(none) %1, i64 noundef %2) #1 {
  %4 = getelementptr inbounds nuw i8, ptr %0, i64 16
  br label %6

5:                                                ; preds = %6
  ret void

6:                                                ; preds = %3, %6
  %indvars.iv = phi i64 [ 0, %3 ], [ %indvars.iv.next, %6 ]
  %.067 = phi ptr [ %1, %3 ], [ %10, %6 ]
  %7 = sub nsw i64 0, %indvars.iv
  %8 = getelementptr inbounds i8, ptr %4, i64 %7
  %9 = load i64, ptr %8, align 1, !tbaa !14
  store i64 %9, ptr %.067, align 1, !tbaa !14
  %10 = getelementptr inbounds i8, ptr %.067, i64 %2
  %indvars.iv.next = add nuw nsw i64 %indvars.iv, 1
  %exitcond.not = icmp eq i64 %indvars.iv.next, 8
  br i1 %exitcond.not, label %5, label %6, !llvm.loop !38
}